target datalayout = "e-m:e-p270:32:32-p271:32:32-p272:64:64-i64:64-i128:128-f80:128-n8:16:32:64-S128"
target triple = "x86_64-pc-linux-gnu"

%"class.icu_77::BytesTrie" = type <{ ptr, ptr, ptr, i32, [4 x i8] }>
%"class.icu_77::StringPiece" = type <{ ptr, i32, [4 x i8] }>

; Function Attrs: inlinehint mustprogress uwtable
define linkonce_odr noundef i32 @_ZNK6icu_779BytesTrie8getValueEv(ptr noundef nonnull align 8 dereferenceable(28) %0) #3 comdat align 2 {
  %2 = alloca ptr, align 8
  %3 = alloca ptr, align 8
  %4 = alloca i32, align 4
  store ptr %0, ptr %2, align 8, !tbaa !108
  %5 = load ptr, ptr %2, align 8
  call void @llvm.lifetime.start.p0(i64 8, ptr %3) #13
  %6 = getelementptr inbounds nuw %"class.icu_77::BytesTrie", ptr %5, i32 0, i32 2
  %7 = load ptr, ptr %6, align 8, !tbaa !112
  store ptr %7, ptr %3, align 8, !tbaa !17
  call void @llvm.lifetime.start.p0(i64 4, ptr %4) #13
  %8 = load ptr, ptr %3, align 8, !tbaa !17
  %9 = getelementptr inbounds nuw i8, ptr %8, i32 1
  store ptr %9, ptr %3, align 8, !tbaa !17
  %10 = load i8, ptr %8, align 1, !tbaa !114
  %11 = zext i8 %10 to i32
  store i32 %11, ptr %4, align 4, !tbaa !14
  %12 = load ptr, ptr %3, align 8, !tbaa !17
  %13 = load i32, ptr %4, align 4, !tbaa !14
  %14 = ashr i32 %13, 1
  %15 = call noundef i32 @_ZN6icu_779BytesTrie9readValueEPKhi(ptr noundef %12, i32 noundef %14)
  call void @llvm.lifetime.end.p0(i64 4, ptr %4) #13
  call void @llvm.lifetime.end.p0(i64 8, ptr %3) #13
  ret i32 %15
}

; Function Attrs: mustprogress nounwind uwtable
define linkonce_odr noundef ptr @_ZNK6icu_7711StringPiece4dataEv(ptr noundef nonnull align 8 dereferenceable(12) %0) #0 comdat align 2 {
  %2 = alloca ptr, align 8
  store ptr %0, ptr %2, align 8, !tbaa !132
  %3 = load ptr, ptr %2, align 8
  %4 = getelementptr inbounds nuw %"class.icu_77::StringPiece", ptr %3, i32 0, i32 0
  %5 = load ptr, ptr %4, align 8, !tbaa !134
  ret ptr %5
}

; Function Attrs: mustprogress nounwind uwtable
define linkonce_odr noundef i32 @_ZNK6icu_7711StringPiece6lengthEv(ptr noundef nonnull align 8 dereferenceable(12) %0) #0 comdat align 2 {
  %2 = alloca ptr, align 8
  store ptr %0, ptr %2, align 8, !tbaa !132
  %3 = load ptr, ptr %2, align 8
  %4 = getelementptr inbounds nuw %"class.icu_77::StringPiece", ptr %3, i32 0, i32 1
  %5 = load i32, ptr %4, align 8, !tbaa !136
  ret i32 %5
}

; Function Attrs: mustprogress uwtable
define noundef i32 @_ZN6icu_7713LikelySubtags8trieNextERNS_9BytesTrieENS_11StringPieceEi(ptr noundef nonnull align 8 dereferenceable(28) %0, ptr %1, i32 %2, i32 noundef %3) #1 align 2 {
  %5 = alloca i32, align 4
  %6 = alloca %"class.icu_77::StringPiece", align 8
  %7 = alloca ptr, align 8
  %8 = alloca i32, align 4
  %9 = alloca i32, align 4
  %10 = alloca i8, align 1
  %11 = alloca i32, align 4
  %12 = getelementptr inbounds nuw { ptr, i32 }, ptr %6, i32 0, i32 0
  store ptr %1, ptr %12, align 8
  %13 = getelementptr inbounds nuw { ptr, i32 }, ptr %6, i32 0, i32 1
  store i32 %2, ptr %13, align 8
  store ptr %0, ptr %7, align 8, !tbaa !108
  store i32 %3, ptr %8, align 4, !tbaa !14
  call void @llvm.lifetime.start.p0(i64 4, ptr %9) #13
  call void @llvm.lifetime.start.p0(i64 1, ptr %10) #13
  %14 = call noundef i32 @_ZNK6icu_7711StringPiece6lengthEv(ptr noundef nonnull align 8 dereferenceable(12) %6)
  %15 = load i32, ptr %8, align 4, !tbaa !14
  %16 = icmp eq i32 %14, %15
  br i1 %16, label %17, label %20

17:                                               ; preds = %4
  %18 = load ptr, ptr %7, align 8, !tbaa !108
  %19 = call noundef i32 @_ZN6icu_779BytesTrie4nextEi(ptr noundef nonnull align 8 dereferenceable(28) %18, i32 noundef 42)
  store i32 %19, ptr %9, align 4, !tbaa !93
  br label %55

20:                                               ; preds = %4
  %21 = call noundef ptr @_ZNK6icu_7711StringPiece4dataEv(ptr noundef nonnull align 8 dereferenceable(12) %6)
  %22 = load i32, ptr %8, align 4, !tbaa !14
  %23 = sext i32 %22 to i64
  %24 = getelementptr inbounds i8, ptr %21, i64 %23
  %25 = load i8, ptr %24, align 1, !tbaa !114
  store i8 %25, ptr %10, align 1, !tbaa !114
  br label %26

26:                                               ; preds = %53, %20
  %27 = load i8, ptr %10, align 1, !tbaa !114
  store i8 %27, ptr %10, align 1, !tbaa !114
  %28 = load i32, ptr %8, align 4, !tbaa !14
  %29 = add nsw i32 %28, 1
  %30 = call noundef i32 @_ZNK6icu_7711StringPiece6lengthEv(ptr noundef nonnull align 8 dereferenceable(12) %6)
  %31 = icmp ne i32 %29, %30
  br i1 %31, label %32, label %47

32:                                               ; preds = %26
  %33 = load ptr, ptr %7, align 8, !tbaa !108
  %34 = load i8, ptr %10, align 1, !tbaa !114
  %35 = zext i8 %34 to i32
  %36 = call noundef i32 @_ZN6icu_779BytesTrie4nextEi(ptr noundef nonnull align 8 dereferenceable(28) %33, i32 noundef %35)
  %37 = and i32 %36, 1
  %38 = icmp ne i32 %37, 0
  br i1 %38, label %40, label %39

39:                                               ; preds = %32
  store i32 -1, ptr %5, align 4
  store i32 1, ptr %11, align 4
  br label %64

40:                                               ; preds = %32
  %41 = call noundef ptr @_ZNK6icu_7711StringPiece4dataEv(ptr noundef nonnull align 8 dereferenceable(12) %6)
  %42 = load i32, ptr %8, align 4, !tbaa !14
  %43 = add nsw i32 %42, 1
  store i32 %43, ptr %8, align 4, !tbaa !14
  %44 = sext i32 %43 to i64
  %45 = getelementptr inbounds i8, ptr %41, i64 %44
  %46 = load i8, ptr %45, align 1, !tbaa !114
  store i8 %46, ptr %10, align 1, !tbaa !114
  br label %53

47:                                               ; preds = %26
  %48 = load ptr, ptr %7, align 8, !tbaa !108
  %49 = load i8, ptr %10, align 1, !tbaa !114
  %50 = zext i8 %49 to i32
  %51 = or i32 %50, 128
  %52 = call noundef i32 @_ZN6icu_779BytesTrie4nextEi(ptr noundef nonnull align 8 dereferenceable(28) %48, i32 noundef %51)
  store i32 %52, ptr %9, align 4, !tbaa !93
  br label %54

53:                                               ; preds = %40
  br label %26, !llvm.loop !137

54:                                               ; preds = %47
  br label %55

55:                                               ; preds = %54, %17
  %56 = load i32, ptr %9, align 4, !tbaa !93
  switch i32 %56, label %63 [
    i32 0, label %57
    i32 1, label %58
    i32 3, label %59
    i32 2, label %60
  ]

57:                                               ; preds = %55
  store i32 -1, ptr %5, align 4
  store i32 1, ptr %11, align 4
  br label %64

58:                                               ; preds = %55
  store i32 0, ptr %5, align 4
  store i32 1, ptr %11, align 4
  br label %64

59:                                               ; preds = %55
  store i32 1, ptr %5, align 4
  store i32 1, ptr %11, align 4
  br label %64

60:                                               ; preds = %55
  %61 = load ptr, ptr %7, align 8, !tbaa !108
  %62 = call noundef i32 @_ZNK6icu_779BytesTrie8getValueEv(ptr noundef nonnull align 8 dereferenceable(28) %61)
  store i32 %62, ptr %5, align 4
  store i32 1, ptr %11, align 4
  br label %64

63:                                               ; preds = %55
  store i32 -1, ptr %5, align 4
  store i32 1, ptr %11, align 4
  br label %64

64:                                               ; preds = %63, %60, %59, %58, %57, %39
  call void @llvm.lifetime.end.p0(i64 1, ptr %10) #13
  call void @llvm.lifetime.end.p0(i64 4, ptr %9) #13
  %65 = load i32, ptr %5, align 4
  ret i32 %65
}