; Function Attrs: mustprogress uwtable
define noundef i32 @_ZN6icu_7713LikelySubtags8trieNextERNS_9BytesTrieENS_11StringPieceEi(ptr noundef nonnull align 8 dereferenceable(28) %0, ptr readonly captures(none) %1, i32 %2, i32 noundef %3) local_unnamed_addr #1 align 2 {
  %5 = icmp eq i32 %2, %3
  br i1 %5, label %15, label %.preheader.preheader

.preheader.preheader:                             ; preds = %4
  %6 = sext i32 %3 to i64
  br label %.preheader

.preheader:                                       ; preds = %.preheader.preheader, %8
  %indvars.iv = phi i64 [ %6, %.preheader.preheader ], [ %indvars.iv.next, %8 ]
  %.0.in = getelementptr inbounds i8, ptr %1, i64 %indvars.iv
  %.0 = load i8, ptr %.0.in, align 1, !tbaa !36
  %indvars.iv.next = add nsw i64 %indvars.iv, 1
  %7 = trunc nsw i64 %indvars.iv.next to i32
  %.not = icmp eq i32 %2, %7
  br i1 %.not, label %12, label %8

8:                                                ; preds = %.preheader
  %9 = zext i8 %.0 to i32
  %10 = tail call noundef i32 @_ZN6icu_779BytesTrie4nextEi(ptr noundef nonnull align 8 dereferenceable(28) %0, i32 noundef %9)
  %11 = and i32 %10, 1
  %.not17 = icmp eq i32 %11, 0
  br i1 %.not17, label %.loopexit, label %.preheader, !llvm.loop !132

12:                                               ; preds = %.preheader
  %13 = or i8 %.0, -128
  %14 = zext i8 %13 to i32
  br label %15

15:                                               ; preds = %4, %12
  %.sink = phi i32 [ %14, %12 ], [ 42, %4 ]
  %16 = tail call noundef i32 @_ZN6icu_779BytesTrie4nextEi(ptr noundef nonnull align 8 dereferenceable(28) %0, i32 noundef %.sink)
  switch i32 %16, label %26 [
    i32 2, label %18
    i32 1, label %.loopexit
    i32 3, label %17
  ]

17:                                               ; preds = %15
  br label %.loopexit

18:                                               ; preds = %15
  %19 = getelementptr inbounds nuw i8, ptr %0, i64 16
  %20 = load ptr, ptr %19, align 8, !tbaa !115
  %21 = getelementptr inbounds nuw i8, ptr %20, i64 1
  %22 = load i8, ptr %20, align 1, !tbaa !36
  %23 = lshr i8 %22, 1
  %24 = zext nneg i8 %23 to i32
  %25 = tail call noundef i32 @_ZN6icu_779BytesTrie9readValueEPKhi(ptr noundef nonnull %21, i32 noundef %24)
  br label %.loopexit

26:                                               ; preds = %15
  br label %.loopexit

.loopexit:                                        ; preds = %8, %15, %26, %18, %17
  %.014 = phi i32 [ -1, %26 ], [ %25, %18 ], [ 1, %17 ], [ 0, %15 ], [ -1, %8 ]
  ret i32 %.014
}